target datalayout = "e-m:e-p270:32:32-p271:32:32-p272:64:64-i64:64-i128:128-f80:128-n8:16:32:64-S128"
target triple = "x86_64-pc-linux-gnu"

%struct.H5FL_reg_head_t = type { i8, i32, i32, ptr, i64, ptr }
%struct.H5G_t = type { ptr, %struct.H5O_loc_t, %struct.H5G_name_t }
%struct.H5O_loc_t = type { ptr, i64, i8 }
%struct.H5G_name_t = type { ptr, ptr, i32 }
%struct.H5G_shared_t = type { i32, i8 }

@H5_H5G_t_reg_free_list = global %struct.H5FL_reg_head_t { i8 0, i32 0, i32 0, ptr @.str, i64 56, ptr null }, align 8
@H5_H5G_shared_t_reg_free_list = global %struct.H5FL_reg_head_t { i8 0, i32 0, i32 0, ptr @.str.1, i64 8, ptr null }, align 8
@.str.3 = private unnamed_addr constant [100 x i8] c"generated/home/dtcxzyw/WorkSpace/Projects/compilers/llvm-opt-benchmark/bench/hdf5/hdf5/src/H5Gint.c\00", align 1
@H5E_SYM_g = external global i64, align 8
@H5E_CANTINIT_g = external global i64, align 8
@__func__.H5G__create = private unnamed_addr constant [12 x i8] c"H5G__create\00", align 1
@H5E_RESOURCE_g = external global i64, align 8
@H5E_NOSPACE_g = external global i64, align 8
@.str.6 = private unnamed_addr constant [25 x i8] c"memory allocation failed\00", align 1
@.str.7 = private unnamed_addr constant [37 x i8] c"unable to create group object header\00", align 1
@H5E_CANTINC_g = external global i64, align 8
@.str.8 = private unnamed_addr constant [29 x i8] c"can't incr object ref. count\00", align 1
@H5E_CANTINSERT_g = external global i64, align 8
@.str.9 = private unnamed_addr constant [45 x i8] c"can't insert group into list of open objects\00", align 1
@H5E_CANTDEC_g = external global i64, align 8
@.str.10 = private unnamed_addr constant [53 x i8] c"unable to decrement refcount on newly created object\00", align 1
@H5E_CLOSEERROR_g = external global i64, align 8
@.str.11 = private unnamed_addr constant [32 x i8] c"unable to release object header\00", align 1
@H5E_CANTDELETE_g = external global i64, align 8
@.str.12 = private unnamed_addr constant [31 x i8] c"unable to delete object header\00", align 1

; Function Attrs: nounwind uwtable
define ptr @H5G__create(ptr noundef %0, ptr noundef %1) #0 {
  %3 = alloca ptr, align 8
  %4 = alloca ptr, align 8
  %5 = alloca ptr, align 8
  %6 = alloca i32, align 4
  %7 = alloca ptr, align 8
  %8 = alloca i8, align 1
  store ptr %0, ptr %3, align 8
  store ptr %1, ptr %4, align 8
  store ptr null, ptr %5, align 8
  store i32 0, ptr %6, align 4
  store ptr null, ptr %7, align 8
  store i8 0, ptr %8, align 1
  %9 = call noalias ptr @H5FL_reg_calloc(ptr noundef @H5_H5G_t_reg_free_list)
  store ptr %9, ptr %5, align 8
  %10 = icmp eq ptr null, %9
  br i1 %10, label %11, label %26

11:                                               ; preds = %2
  br label %12

12:                                               ; preds = %11
  br label %13

13:                                               ; preds = %12
  br label %14

14:                                               ; preds = %13
  %15 = load i64, ptr @H5E_RESOURCE_g, align 8
  %16 = load i64, ptr @H5E_NOSPACE_g, align 8
  %17 = call i32 (ptr, ptr, i32, i64, i64, ptr, ...) @H5E_printf_stack(ptr noundef @.str.3, ptr noundef @__func__.H5G__create, i32 noundef 303, i64 noundef %15, i64 noundef %16, ptr noundef @.str.6)
  br label %18

18:                                               ; preds = %14
  store i8 1, ptr %8, align 1
  %19 = load i8, ptr %8, align 1
  %20 = trunc i8 %19 to i1
  %21 = zext i1 %20 to i8
  store i8 %21, ptr %8, align 1
  br label %22

22:                                               ; preds = %18
  br label %23

23:                                               ; preds = %22
  store ptr null, ptr %7, align 8
  br label %129

24:                                               ; No predecessors!
  br label %25

25:                                               ; preds = %24
  br label %26

26:                                               ; preds = %25, %2
  %27 = call noalias ptr @H5FL_reg_calloc(ptr noundef @H5_H5G_shared_t_reg_free_list)
  %28 = load ptr, ptr %5, align 8
  %29 = getelementptr inbounds %struct.H5G_t, ptr %28, i32 0, i32 0
  store ptr %27, ptr %29, align 8
  %30 = icmp eq ptr null, %27
  br i1 %30, label %31, label %46

31:                                               ; preds = %26
  br label %32

32:                                               ; preds = %31
  br label %33

33:                                               ; preds = %32
  br label %34

34:                                               ; preds = %33
  %35 = load i64, ptr @H5E_RESOURCE_g, align 8
  %36 = load i64, ptr @H5E_NOSPACE_g, align 8
  %37 = call i32 (ptr, ptr, i32, i64, i64, ptr, ...) @H5E_printf_stack(ptr noundef @.str.3, ptr noundef @__func__.H5G__create, i32 noundef 305, i64 noundef %35, i64 noundef %36, ptr noundef @.str.6)
  br label %38

38:                                               ; preds = %34
  store i8 1, ptr %8, align 1
  %39 = load i8, ptr %8, align 1
  %40 = trunc i8 %39 to i1
  %41 = zext i1 %40 to i8
  store i8 %41, ptr %8, align 1
  br label %42

42:                                               ; preds = %38
  br label %43

43:                                               ; preds = %42
  store ptr null, ptr %7, align 8
  br label %129

44:                                               ; No predecessors!
  br label %45

45:                                               ; preds = %44
  br label %46

46:                                               ; preds = %45, %26
  %47 = load ptr, ptr %3, align 8
  %48 = load ptr, ptr %4, align 8
  %49 = load ptr, ptr %5, align 8
  %50 = getelementptr inbounds %struct.H5G_t, ptr %49, i32 0, i32 1
  %51 = call i32 @H5G__obj_create(ptr noundef %47, ptr noundef %48, ptr noundef %50)
  %52 = icmp slt i32 %51, 0
  br i1 %52, label %53, label %68

53:                                               ; preds = %46
  br label %54

54:                                               ; preds = %53
  br label %55

55:                                               ; preds = %54
  br label %56

56:                                               ; preds = %55
  %57 = load i64, ptr @H5E_SYM_g, align 8
  %58 = load i64, ptr @H5E_CANTINIT_g, align 8
  %59 = call i32 (ptr, ptr, i32, i64, i64, ptr, ...) @H5E_printf_stack(ptr noundef @.str.3, ptr noundef @__func__.H5G__create, i32 noundef 309, i64 noundef %57, i64 noundef %58, ptr noundef @.str.7)
  br label %60

60:                                               ; preds = %56
  store i8 1, ptr %8, align 1
  %61 = load i8, ptr %8, align 1
  %62 = trunc i8 %61 to i1
  %63 = zext i1 %62 to i8
  store i8 %63, ptr %8, align 1
  br label %64

64:                                               ; preds = %60
  br label %65

65:                                               ; preds = %64
  store ptr null, ptr %7, align 8
  br label %129

66:                                               ; No predecessors!
  br label %67

67:                                               ; preds = %66
  br label %68

68:                                               ; preds = %67, %46
  store i32 1, ptr %6, align 4
  %69 = load ptr, ptr %5, align 8
  %70 = getelementptr inbounds %struct.H5G_t, ptr %69, i32 0, i32 1
  %71 = getelementptr inbounds %struct.H5O_loc_t, ptr %70, i32 0, i32 0
  %72 = load ptr, ptr %71, align 8
  %73 = load ptr, ptr %5, align 8
  %74 = getelementptr inbounds %struct.H5G_t, ptr %73, i32 0, i32 1
  %75 = getelementptr inbounds %struct.H5O_loc_t, ptr %74, i32 0, i32 1
  %76 = load i64, ptr %75, align 8
  %77 = call i32 @H5FO_top_incr(ptr noundef %72, i64 noundef %76)
  %78 = icmp slt i32 %77, 0
  br i1 %78, label %79, label %94

79:                                               ; preds = %68
  br label %80

80:                                               ; preds = %79
  br label %81

81:                                               ; preds = %80
  br label %82

82:                                               ; preds = %81
  %83 = load i64, ptr @H5E_SYM_g, align 8
  %84 = load i64, ptr @H5E_CANTINC_g, align 8
  %85 = call i32 (ptr, ptr, i32, i64, i64, ptr, ...) @H5E_printf_stack(ptr noundef @.str.3, ptr noundef @__func__.H5G__create, i32 noundef 314, i64 noundef %83, i64 noundef %84, ptr noundef @.str.8)
  br label %86

86:                                               ; preds = %82
  store i8 1, ptr %8, align 1
  %87 = load i8, ptr %8, align 1
  %88 = trunc i8 %87 to i1
  %89 = zext i1 %88 to i8
  store i8 %89, ptr %8, align 1
  br label %90

90:                                               ; preds = %86
  br label %91

91:                                               ; preds = %90
  store ptr null, ptr %7, align 8
  br label %129

92:                                               ; No predecessors!
  br label %93

93:                                               ; preds = %92
  br label %94

94:                                               ; preds = %93, %68
  %95 = load ptr, ptr %5, align 8
  %96 = getelementptr inbounds %struct.H5G_t, ptr %95, i32 0, i32 1
  %97 = getelementptr inbounds %struct.H5O_loc_t, ptr %96, i32 0, i32 0
  %98 = load ptr, ptr %97, align 8
  %99 = load ptr, ptr %5, align 8
  %100 = getelementptr inbounds %struct.H5G_t, ptr %99, i32 0, i32 1
  %101 = getelementptr inbounds %struct.H5O_loc_t, ptr %100, i32 0, i32 1
  %102 = load i64, ptr %101, align 8
  %103 = load ptr, ptr %5, align 8
  %104 = getelementptr inbounds %struct.H5G_t, ptr %103, i32 0, i32 0
  %105 = load ptr, ptr %104, align 8
  %106 = call i32 @H5FO_insert(ptr noundef %98, i64 noundef %102, ptr noundef %105, i1 noundef zeroext true)
  %107 = icmp slt i32 %106, 0
  br i1 %107, label %108, label %123

108:                                              ; preds = %94
  br label %109

109:                                              ; preds = %108
  br label %110

110:                                              ; preds = %109
  br label %111

111:                                              ; preds = %110
  %112 = load i64, ptr @H5E_SYM_g, align 8
  %113 = load i64, ptr @H5E_CANTINSERT_g, align 8
  %114 = call i32 (ptr, ptr, i32, i64, i64, ptr, ...) @H5E_printf_stack(ptr noundef @.str.3, ptr noundef @__func__.H5G__create, i32 noundef 316, i64 noundef %112, i64 noundef %113, ptr noundef @.str.9)
  br label %115

115:                                              ; preds = %111
  store i8 1, ptr %8, align 1
  %116 = load i8, ptr %8, align 1
  %117 = trunc i8 %116 to i1
  %118 = zext i1 %117 to i8
  store i8 %118, ptr %8, align 1
  br label %119

119:                                              ; preds = %115
  br label %120

120:                                              ; preds = %119
  store ptr null, ptr %7, align 8
  br label %129

121:                                              ; No predecessors!
  br label %122

122:                                              ; preds = %121
  br label %123

123:                                              ; preds = %122, %94
  %124 = load ptr, ptr %5, align 8
  %125 = getelementptr inbounds %struct.H5G_t, ptr %124, i32 0, i32 0
  %126 = load ptr, ptr %125, align 8
  %127 = getelementptr inbounds %struct.H5G_shared_t, ptr %126, i32 0, i32 0
  store i32 1, ptr %127, align 4
  %128 = load ptr, ptr %5, align 8
  store ptr %128, ptr %7, align 8
  br label %129

129:                                              ; preds = %123, %120, %91, %65, %43, %23
  %130 = load ptr, ptr %7, align 8
  %131 = icmp eq ptr %130, null
  br i1 %131, label %132, label %212

132:                                              ; preds = %129
  %133 = load i32, ptr %6, align 4
  %134 = icmp ne i32 %133, 0
  br i1 %134, label %135, label %193

135:                                              ; preds = %132
  %136 = load ptr, ptr %5, align 8
  %137 = getelementptr inbounds %struct.H5G_t, ptr %136, i32 0, i32 1
  %138 = call i32 @H5O_dec_rc_by_loc(ptr noundef %137)
  %139 = icmp slt i32 %138, 0
  br i1 %139, label %140, label %153

140:                                              ; preds = %135
  br label %141

141:                                              ; preds = %140
  br label %142

142:                                              ; preds = %141
  br label %143

143:                                              ; preds = %142
  %144 = load i64, ptr @H5E_SYM_g, align 8
  %145 = load i64, ptr @H5E_CANTDEC_g, align 8
  %146 = call i32 (ptr, ptr, i32, i64, i64, ptr, ...) @H5E_printf_stack(ptr noundef @.str.3, ptr noundef @__func__.H5G__create, i32 noundef 330, i64 noundef %144, i64 noundef %145, ptr noundef @.str.10)
  br label %147

147:                                              ; preds = %143
  store i8 1, ptr %8, align 1
  %148 = load i8, ptr %8, align 1
  %149 = trunc i8 %148 to i1
  %150 = zext i1 %149 to i8
  store i8 %150, ptr %8, align 1
  br label %151

151:                                              ; preds = %147
  store ptr null, ptr %7, align 8
  br label %152

152:                                              ; preds = %151
  br label %153

153:                                              ; preds = %152, %135
  %154 = load ptr, ptr %5, align 8
  %155 = getelementptr inbounds %struct.H5G_t, ptr %154, i32 0, i32 1
  %156 = call i32 @H5O_close(ptr noundef %155, ptr noundef null)
  %157 = icmp slt i32 %156, 0
  br i1 %157, label %158, label %171

158:                                              ; preds = %153
  br label %159

159:                                              ; preds = %158
  br label %160

160:                                              ; preds = %159
  br label %161

161:                                              ; preds = %160
  %162 = load i64, ptr @H5E_SYM_g, align 8
  %163 = load i64, ptr @H5E_CLOSEERROR_g, align 8
  %164 = call i32 (ptr, ptr, i32, i64, i64, ptr, ...) @H5E_printf_stack(ptr noundef @.str.3, ptr noundef @__func__.H5G__create, i32 noundef 332, i64 noundef %162, i64 noundef %163, ptr noundef @.str.11)
  br label %165

165:                                              ; preds = %161
  store i8 1, ptr %8, align 1
  %166 = load i8, ptr %8, align 1
  %167 = trunc i8 %166 to i1
  %168 = zext i1 %167 to i8
  store i8 %168, ptr %8, align 1
  br label %169

169:                                              ; preds = %165
  store ptr null, ptr %7, align 8
  br label %170

170:                                              ; preds = %169
  br label %171

171:                                              ; preds = %170, %153
  %172 = load ptr, ptr %3, align 8
  %173 = load ptr, ptr %5, align 8
  %174 = getelementptr inbounds %struct.H5G_t, ptr %173, i32 0, i32 1
  %175 = getelementptr inbounds %struct.H5O_loc_t, ptr %174, i32 0, i32 1
  %176 = load i64, ptr %175, align 8
  %177 = call i32 @H5O_delete(ptr noundef %172, i64 noundef %176)
  %178 = icmp slt i32 %177, 0
  br i1 %178, label %179, label %192

179:                                              ; preds = %171
  br label %180

180:                                              ; preds = %179
  br label %181

181:                                              ; preds = %180
  br label %182

182:                                              ; preds = %181
  %183 = load i64, ptr @H5E_SYM_g, align 8
  %184 = load i64, ptr @H5E_CANTDELETE_g, align 8
  %185 = call i32 (ptr, ptr, i32, i64, i64, ptr, ...) @H5E_printf_stack(ptr noundef @.str.3, ptr noundef @__func__.H5G__create, i32 noundef 334, i64 noundef %183, i64 noundef %184, ptr noundef @.str.12)
  br label %186

186:                                              ; preds = %182
  store i8 1, ptr %8, align 1
  %187 = load i8, ptr %8, align 1
  %188 = trunc i8 %187 to i1
  %189 = zext i1 %188 to i8
  store i8 %189, ptr %8, align 1
  br label %190

190:                                              ; preds = %186
  store ptr null, ptr %7, align 8
  br label %191

191:                                              ; preds = %190
  br label %192

192:                                              ; preds = %191, %171
  br label %193

193:                                              ; preds = %192, %132
  %194 = load ptr, ptr %5, align 8
  %195 = icmp ne ptr %194, null
  br i1 %195, label %196, label %211

196:                                              ; preds = %193
  %197 = load ptr, ptr %5, align 8
  %198 = getelementptr inbounds %struct.H5G_t, ptr %197, i32 0, i32 0
  %199 = load ptr, ptr %198, align 8
  %200 = icmp ne ptr %199, null
  br i1 %200, label %201, label %208

201:                                              ; preds = %196
  %202 = load ptr, ptr %5, align 8
  %203 = getelementptr inbounds %struct.H5G_t, ptr %202, i32 0, i32 0
  %204 = load ptr, ptr %203, align 8
  %205 = call ptr @H5FL_reg_free(ptr noundef @H5_H5G_shared_t_reg_free_list, ptr noundef %204)
  %206 = load ptr, ptr %5, align 8
  %207 = getelementptr inbounds %struct.H5G_t, ptr %206, i32 0, i32 0
  store ptr %205, ptr %207, align 8
  br label %208

208:                                              ; preds = %201, %196
  %209 = load ptr, ptr %5, align 8
  %210 = call ptr @H5FL_reg_free(ptr noundef @H5_H5G_t_reg_free_list, ptr noundef %209)
  store ptr %210, ptr %5, align 8
  br label %211

211:                                              ; preds = %208, %193
  br label %212

212:                                              ; preds = %211, %129
  %213 = load ptr, ptr %7, align 8
  ret ptr %213
}