; Function Attrs: nounwind uwtable
define ptr @H5G__create(ptr noundef %0, ptr noundef %1) local_unnamed_addr #0 {
  %3 = tail call noalias ptr @H5FL_reg_calloc(ptr noundef nonnull @H5_H5G_t_reg_free_list) #10
  %4 = icmp eq ptr %3, null
  br i1 %4, label %64, label %5

5:                                                ; preds = %2
  %6 = tail call noalias ptr @H5FL_reg_calloc(ptr noundef nonnull @H5_H5G_shared_t_reg_free_list) #10
  store ptr %6, ptr %3, align 8
  %7 = icmp eq ptr %6, null
  br i1 %7, label %8, label %12

8:                                                ; preds = %5
  %9 = load i64, ptr @H5E_RESOURCE_g, align 8
  %10 = load i64, ptr @H5E_NOSPACE_g, align 8
  %11 = tail call i32 (ptr, ptr, i32, i64, i64, ptr, ...) @H5E_printf_stack(ptr noundef nonnull @.str.3, ptr noundef nonnull @__func__.H5G__create, i32 noundef 305, i64 noundef %9, i64 noundef %10, ptr noundef nonnull @.str.6) #10
  br label %.thread43

12:                                               ; preds = %5
  %13 = getelementptr inbounds i8, ptr %3, i64 8
  %14 = tail call i32 @H5G__obj_create(ptr noundef %0, ptr noundef %1, ptr noundef nonnull %13) #10
  %15 = icmp slt i32 %14, 0
  br i1 %15, label %16, label %20

16:                                               ; preds = %12
  %17 = load i64, ptr @H5E_SYM_g, align 8
  %18 = load i64, ptr @H5E_CANTINIT_g, align 8
  %19 = tail call i32 (ptr, ptr, i32, i64, i64, ptr, ...) @H5E_printf_stack(ptr noundef nonnull @.str.3, ptr noundef nonnull @__func__.H5G__create, i32 noundef 309, i64 noundef %17, i64 noundef %18, ptr noundef nonnull @.str.7) #10
  br label %.thread43

20:                                               ; preds = %12
  %21 = load ptr, ptr %13, align 8
  %22 = getelementptr inbounds i8, ptr %3, i64 16
  %23 = load i64, ptr %22, align 8
  %24 = tail call i32 @H5FO_top_incr(ptr noundef %21, i64 noundef %23) #10
  %25 = icmp slt i32 %24, 0
  br i1 %25, label %26, label %30

26:                                               ; preds = %20
  %27 = load i64, ptr @H5E_SYM_g, align 8
  %28 = load i64, ptr @H5E_CANTINC_g, align 8
  %29 = tail call i32 (ptr, ptr, i32, i64, i64, ptr, ...) @H5E_printf_stack(ptr noundef nonnull @.str.3, ptr noundef nonnull @__func__.H5G__create, i32 noundef 314, i64 noundef %27, i64 noundef %28, ptr noundef nonnull @.str.8) #10
  br label %42

30:                                               ; preds = %20
  %31 = load ptr, ptr %13, align 8
  %32 = load i64, ptr %22, align 8
  %33 = load ptr, ptr %3, align 8
  %34 = tail call i32 @H5FO_insert(ptr noundef %31, i64 noundef %32, ptr noundef %33, i1 noundef zeroext true) #10
  %35 = icmp slt i32 %34, 0
  br i1 %35, label %36, label %40

36:                                               ; preds = %30
  %37 = load i64, ptr @H5E_SYM_g, align 8
  %38 = load i64, ptr @H5E_CANTINSERT_g, align 8
  %39 = tail call i32 (ptr, ptr, i32, i64, i64, ptr, ...) @H5E_printf_stack(ptr noundef nonnull @.str.3, ptr noundef nonnull @__func__.H5G__create, i32 noundef 316, i64 noundef %37, i64 noundef %38, ptr noundef nonnull @.str.9) #10
  br label %42

40:                                               ; preds = %30
  %41 = load ptr, ptr %3, align 8
  store i32 1, ptr %41, align 4
  br label %73

42:                                               ; preds = %36, %26
  %43 = tail call i32 @H5O_dec_rc_by_loc(ptr noundef nonnull %13) #10
  %44 = icmp slt i32 %43, 0
  br i1 %44, label %45, label %49

45:                                               ; preds = %42
  %46 = load i64, ptr @H5E_SYM_g, align 8
  %47 = load i64, ptr @H5E_CANTDEC_g, align 8
  %48 = tail call i32 (ptr, ptr, i32, i64, i64, ptr, ...) @H5E_printf_stack(ptr noundef nonnull @.str.3, ptr noundef nonnull @__func__.H5G__create, i32 noundef 330, i64 noundef %46, i64 noundef %47, ptr noundef nonnull @.str.10) #10
  br label %49

49:                                               ; preds = %45, %42
  %50 = tail call i32 @H5O_close(ptr noundef nonnull %13, ptr noundef null) #10
  %51 = icmp slt i32 %50, 0
  br i1 %51, label %52, label %56

52:                                               ; preds = %49
  %53 = load i64, ptr @H5E_SYM_g, align 8
  %54 = load i64, ptr @H5E_CLOSEERROR_g, align 8
  %55 = tail call i32 (ptr, ptr, i32, i64, i64, ptr, ...) @H5E_printf_stack(ptr noundef nonnull @.str.3, ptr noundef nonnull @__func__.H5G__create, i32 noundef 332, i64 noundef %53, i64 noundef %54, ptr noundef nonnull @.str.11) #10
  br label %56

56:                                               ; preds = %52, %49
  %57 = load i64, ptr %22, align 8
  %58 = tail call i32 @H5O_delete(ptr noundef %0, i64 noundef %57) #10
  %59 = icmp slt i32 %58, 0
  br i1 %59, label %60, label %.thread43

60:                                               ; preds = %56
  %61 = load i64, ptr @H5E_SYM_g, align 8
  %62 = load i64, ptr @H5E_CANTDELETE_g, align 8
  %63 = tail call i32 (ptr, ptr, i32, i64, i64, ptr, ...) @H5E_printf_stack(ptr noundef nonnull @.str.3, ptr noundef nonnull @__func__.H5G__create, i32 noundef 334, i64 noundef %61, i64 noundef %62, ptr noundef nonnull @.str.12) #10
  br label %.thread43

64:                                               ; preds = %2
  %65 = load i64, ptr @H5E_RESOURCE_g, align 8
  %66 = load i64, ptr @H5E_NOSPACE_g, align 8
  %67 = tail call i32 (ptr, ptr, i32, i64, i64, ptr, ...) @H5E_printf_stack(ptr noundef nonnull @.str.3, ptr noundef nonnull @__func__.H5G__create, i32 noundef 303, i64 noundef %65, i64 noundef %66, ptr noundef nonnull @.str.6) #10
  br label %73

.thread43:                                        ; preds = %8, %16, %60, %56
  %68 = load ptr, ptr %3, align 8
  %.not35 = icmp eq ptr %68, null
  br i1 %.not35, label %71, label %69

69:                                               ; preds = %.thread43
  %70 = tail call ptr @H5FL_reg_free(ptr noundef nonnull @H5_H5G_shared_t_reg_free_list, ptr noundef nonnull %68) #10
  store ptr %70, ptr %3, align 8
  br label %71

71:                                               ; preds = %69, %.thread43
  %72 = tail call ptr @H5FL_reg_free(ptr noundef nonnull @H5_H5G_t_reg_free_list, ptr noundef nonnull %3) #10
  br label %73

73:                                               ; preds = %64, %40, %71
  %.4 = phi ptr [ null, %71 ], [ null, %64 ], [ %3, %40 ]
  ret ptr %.4
}